target datalayout = "e-m:e-p270:32:32-p271:32:32-p272:64:64-i64:64-i128:128-f80:128-n8:16:32:64-S128"
target triple = "x86_64-pc-linux-gnu"

%struct.RELCACHECALLBACK = type { ptr, i64 }

@relcache_callback_count = internal global i32 0, align 4
@relcache_callback_list = internal global [10 x %struct.RELCACHECALLBACK] zeroinitializer, align 16
@.str.1 = private unnamed_addr constant [8 x i8] c"inval.c\00", align 1
@.str.10 = private unnamed_addr constant [36 x i8] c"out of relcache_callback_list slots\00", align 1
@__func__.CacheRegisterRelcacheCallback = private unnamed_addr constant [30 x i8] c"CacheRegisterRelcacheCallback\00", align 1

; Function Attrs: nounwind uwtable
define dso_local void @CacheRegisterRelcacheCallback(ptr noundef %0, i64 noundef %1) #0 {
  %3 = alloca ptr, align 8
  %4 = alloca i64, align 8
  store ptr %0, ptr %3, align 8
  store i64 %1, ptr %4, align 8
  %5 = load i32, ptr @relcache_callback_count, align 4
  %6 = icmp sge i32 %5, 10
  br i1 %6, label %7, label %17

7:                                                ; preds = %2
  br label %8

8:                                                ; preds = %7
  br i1 true, label %9, label %11

9:                                                ; preds = %8
  %10 = call zeroext i1 @errstart_cold(i32 noundef 22, ptr noundef null) #8
  br i1 %10, label %13, label %15

11:                                               ; preds = %8
  %12 = call zeroext i1 @errstart(i32 noundef 22, ptr noundef null)
  br i1 %12, label %13, label %15

13:                                               ; preds = %11, %9
  %14 = call i32 (ptr, ...) @errmsg_internal(ptr noundef @.str.10)
  call void @errfinish(ptr noundef @.str.1, i32 noundef 1753, ptr noundef @__func__.CacheRegisterRelcacheCallback)
  br label %15

15:                                               ; preds = %13, %11, %9
  unreachable

16:                                               ; No predecessors!
  br label %17

17:                                               ; preds = %16, %2
  %18 = load ptr, ptr %3, align 8
  %19 = load i32, ptr @relcache_callback_count, align 4
  %20 = sext i32 %19 to i64
  %21 = getelementptr inbounds [10 x %struct.RELCACHECALLBACK], ptr @relcache_callback_list, i64 0, i64 %20
  %22 = getelementptr inbounds nuw %struct.RELCACHECALLBACK, ptr %21, i32 0, i32 0
  store ptr %18, ptr %22, align 16
  %23 = load i64, ptr %4, align 8
  %24 = load i32, ptr @relcache_callback_count, align 4
  %25 = sext i32 %24 to i64
  %26 = getelementptr inbounds [10 x %struct.RELCACHECALLBACK], ptr @relcache_callback_list, i64 0, i64 %25
  %27 = getelementptr inbounds nuw %struct.RELCACHECALLBACK, ptr %26, i32 0, i32 1
  store i64 %23, ptr %27, align 8
  %28 = load i32, ptr @relcache_callback_count, align 4
  %29 = add i32 %28, 1
  store i32 %29, ptr @relcache_callback_count, align 4
  ret void
}