; Function Attrs: nounwind uwtable
define dso_local void @CacheRegisterRelcacheCallback(ptr noundef %0, i64 noundef %1) local_unnamed_addr #0 {
  %3 = load i32, ptr @relcache_callback_count, align 4
  %4 = icmp sgt i32 %3, 9
  br i1 %4, label %5, label %8

5:                                                ; preds = %2
  %6 = tail call zeroext i1 @errstart_cold(i32 noundef 22, ptr noundef null) #8
  tail call void @llvm.assume(i1 %6)
  %7 = tail call i32 (ptr, ...) @errmsg_internal(ptr noundef nonnull @.str.10) #7
  tail call void @errfinish(ptr noundef nonnull @.str.1, i32 noundef 1753, ptr noundef nonnull @__func__.CacheRegisterRelcacheCallback) #7
  unreachable

8:                                                ; preds = %2
  %9 = sext i32 %3 to i64
  %10 = getelementptr inbounds [10 x %struct.RELCACHECALLBACK], ptr @relcache_callback_list, i64 0, i64 %9
  store ptr %0, ptr %10, align 16
  %11 = getelementptr inbounds [10 x %struct.RELCACHECALLBACK], ptr @relcache_callback_list, i64 0, i64 %9, i32 1
  store i64 %1, ptr %11, align 8
  %12 = add nsw i32 %3, 1
  store i32 %12, ptr @relcache_callback_count, align 4
  ret void
}